target datalayout = "e-m:e-p270:32:32-p271:32:32-p272:64:64-i64:64-i128:128-f80:128-n8:16:32:64-S128"
target triple = "x86_64-pc-linux-gnu"

%"class.Imath_3_2::Vec2" = type { float, float }
%"class.Imath_3_2::Vec3" = type { float, float, float }
%"class.Imath_3_2::Box" = type { %"class.Imath_3_2::Vec2.0", %"class.Imath_3_2::Vec2.0" }
%"class.Imath_3_2::Vec2.0" = type { i32, i32 }

; Function Attrs: inlinehint mustprogress nounwind uwtable
define linkonce_odr noundef nonnull align 4 dereferenceable(4) ptr @_ZSt3minIiERKT_S2_S2_(ptr noundef nonnull align 4 dereferenceable(4) %0, ptr noundef nonnull align 4 dereferenceable(4) %1) #6 comdat {
  %3 = alloca ptr, align 8
  %4 = alloca ptr, align 8
  %5 = alloca ptr, align 8
  store ptr %0, ptr %4, align 8, !tbaa !29
  store ptr %1, ptr %5, align 8, !tbaa !29
  %6 = load ptr, ptr %5, align 8, !tbaa !29
  %7 = load i32, ptr %6, align 4, !tbaa !14
  %8 = load ptr, ptr %4, align 8, !tbaa !29
  %9 = load i32, ptr %8, align 4, !tbaa !14
  %10 = icmp slt i32 %7, %9
  br i1 %10, label %11, label %13

11:                                               ; preds = %2
  %12 = load ptr, ptr %5, align 8, !tbaa !29
  store ptr %12, ptr %3, align 8
  br label %15

13:                                               ; preds = %2
  %14 = load ptr, ptr %4, align 8, !tbaa !29
  store ptr %14, ptr %3, align 8
  br label %15

15:                                               ; preds = %13, %11
  %16 = load ptr, ptr %3, align 8
  ret ptr %16
}

; Function Attrs: inlinehint mustprogress nounwind uwtable
define linkonce_odr hidden void @_ZN9Imath_3_24Vec3IfEC2Efff(ptr noundef nonnull align 4 dereferenceable(12) %0, float noundef %1, float noundef %2, float noundef %3) unnamed_addr #6 comdat align 2 {
  %5 = alloca ptr, align 8
  %6 = alloca float, align 4
  %7 = alloca float, align 4
  %8 = alloca float, align 4
  store ptr %0, ptr %5, align 8, !tbaa !3
  store float %1, ptr %6, align 4, !tbaa !12
  store float %2, ptr %7, align 4, !tbaa !12
  store float %3, ptr %8, align 4, !tbaa !12
  %9 = load ptr, ptr %5, align 8
  %10 = getelementptr inbounds nuw %"class.Imath_3_2::Vec3", ptr %9, i32 0, i32 0
  %11 = load float, ptr %6, align 4, !tbaa !12
  store float %11, ptr %10, align 4, !tbaa !11
  %12 = getelementptr inbounds nuw %"class.Imath_3_2::Vec3", ptr %9, i32 0, i32 1
  %13 = load float, ptr %7, align 4, !tbaa !12
  store float %13, ptr %12, align 4, !tbaa !13
  %14 = getelementptr inbounds nuw %"class.Imath_3_2::Vec3", ptr %9, i32 0, i32 2
  %15 = load float, ptr %8, align 4, !tbaa !12
  store float %15, ptr %14, align 4, !tbaa !8
  ret void
}

; Function Attrs: inlinehint mustprogress nounwind uwtable
define linkonce_odr hidden noundef nonnull align 4 dereferenceable(8) ptr @_ZN9Imath_3_24Vec2IfEaSERKS1_(ptr noundef nonnull align 4 dereferenceable(8) %0, ptr noundef nonnull align 4 dereferenceable(8) %1) #6 comdat align 2 {
  %3 = alloca ptr, align 8
  %4 = alloca ptr, align 8
  store ptr %0, ptr %3, align 8, !tbaa !16
  store ptr %1, ptr %4, align 8, !tbaa !16
  %5 = load ptr, ptr %3, align 8
  %6 = load ptr, ptr %4, align 8, !tbaa !16
  %7 = getelementptr inbounds nuw %"class.Imath_3_2::Vec2", ptr %6, i32 0, i32 0
  %8 = load float, ptr %7, align 4, !tbaa !18
  %9 = getelementptr inbounds nuw %"class.Imath_3_2::Vec2", ptr %5, i32 0, i32 0
  store float %8, ptr %9, align 4, !tbaa !18
  %10 = load ptr, ptr %4, align 8, !tbaa !16
  %11 = getelementptr inbounds nuw %"class.Imath_3_2::Vec2", ptr %10, i32 0, i32 1
  %12 = load float, ptr %11, align 4, !tbaa !20
  %13 = getelementptr inbounds nuw %"class.Imath_3_2::Vec2", ptr %5, i32 0, i32 1
  store float %12, ptr %13, align 4, !tbaa !20
  ret ptr %5
}

; Function Attrs: inlinehint mustprogress nounwind uwtable
define linkonce_odr hidden void @_ZN9Imath_3_24Vec2IfEC2Eff(ptr noundef nonnull align 4 dereferenceable(8) %0, float noundef %1, float noundef %2) unnamed_addr #6 comdat align 2 {
  %4 = alloca ptr, align 8
  %5 = alloca float, align 4
  %6 = alloca float, align 4
  store ptr %0, ptr %4, align 8, !tbaa !16
  store float %1, ptr %5, align 4, !tbaa !12
  store float %2, ptr %6, align 4, !tbaa !12
  %7 = load ptr, ptr %4, align 8
  %8 = getelementptr inbounds nuw %"class.Imath_3_2::Vec2", ptr %7, i32 0, i32 0
  %9 = load float, ptr %5, align 4, !tbaa !12
  store float %9, ptr %8, align 4, !tbaa !18
  %10 = getelementptr inbounds nuw %"class.Imath_3_2::Vec2", ptr %7, i32 0, i32 1
  %11 = load float, ptr %6, align 4, !tbaa !12
  store float %11, ptr %10, align 4, !tbaa !20
  ret void
}

; Function Attrs: inlinehint mustprogress nounwind uwtable
define linkonce_odr hidden void @_ZN9Imath_3_24Vec2IfEC2Ev(ptr noundef nonnull align 4 dereferenceable(8) %0) unnamed_addr #6 comdat align 2 {
  %2 = alloca ptr, align 8
  store ptr %0, ptr %2, align 8, !tbaa !16
  ret void
}

; Function Attrs: mustprogress uwtable
define noundef i32 @_ZN7Imf_3_47CubeMap10sizeOfFaceERKN9Imath_3_23BoxINS1_4Vec2IiEEEE(ptr noundef nonnull align 4 dereferenceable(16) %0) #4 {
  %2 = alloca ptr, align 8
  %3 = alloca i32, align 4
  %4 = alloca i32, align 4
  store ptr %0, ptr %2, align 8, !tbaa !21
  call void @llvm.lifetime.start.p0(i64 4, ptr %3) #3
  %5 = load ptr, ptr %2, align 8, !tbaa !21
  %6 = getelementptr inbounds nuw %"class.Imath_3_2::Box", ptr %5, i32 0, i32 1
  %7 = getelementptr inbounds nuw %"class.Imath_3_2::Vec2.0", ptr %6, i32 0, i32 0
  %8 = load i32, ptr %7, align 4, !tbaa !27
  %9 = load ptr, ptr %2, align 8, !tbaa !21
  %10 = getelementptr inbounds nuw %"class.Imath_3_2::Box", ptr %9, i32 0, i32 0
  %11 = getelementptr inbounds nuw %"class.Imath_3_2::Vec2.0", ptr %10, i32 0, i32 0
  %12 = load i32, ptr %11, align 4, !tbaa !28
  %13 = sub nsw i32 %8, %12
  %14 = add nsw i32 %13, 1
  store i32 %14, ptr %3, align 4, !tbaa !14
  call void @llvm.lifetime.start.p0(i64 4, ptr %4) #3
  %15 = load ptr, ptr %2, align 8, !tbaa !21
  %16 = getelementptr inbounds nuw %"class.Imath_3_2::Box", ptr %15, i32 0, i32 1
  %17 = getelementptr inbounds nuw %"class.Imath_3_2::Vec2.0", ptr %16, i32 0, i32 1
  %18 = load i32, ptr %17, align 4, !tbaa !23
  %19 = load ptr, ptr %2, align 8, !tbaa !21
  %20 = getelementptr inbounds nuw %"class.Imath_3_2::Box", ptr %19, i32 0, i32 0
  %21 = getelementptr inbounds nuw %"class.Imath_3_2::Vec2.0", ptr %20, i32 0, i32 1
  %22 = load i32, ptr %21, align 4, !tbaa !26
  %23 = sub nsw i32 %18, %22
  %24 = add nsw i32 %23, 1
  %25 = sdiv i32 %24, 6
  store i32 %25, ptr %4, align 4, !tbaa !14
  %26 = call noundef nonnull align 4 dereferenceable(4) ptr @_ZSt3minIiERKT_S2_S2_(ptr noundef nonnull align 4 dereferenceable(4) %3, ptr noundef nonnull align 4 dereferenceable(4) %4)
  %27 = load i32, ptr %26, align 4, !tbaa !14
  call void @llvm.lifetime.end.p0(i64 4, ptr %4) #3
  call void @llvm.lifetime.end.p0(i64 4, ptr %3) #3
  ret i32 %27
}

; Function Attrs: mustprogress uwtable
define void @_ZN7Imf_3_47CubeMap9directionENS_11CubeMapFaceERKN9Imath_3_23BoxINS2_4Vec2IiEEEERKNS4_IfEE(ptr dead_on_unwind noalias writable sret(%"class.Imath_3_2::Vec3") align 4 %0, i32 noundef %1, ptr noundef nonnull align 4 dereferenceable(16) %2, ptr noundef nonnull align 4 dereferenceable(8) %3) #4 {
  %5 = alloca ptr, align 8
  %6 = alloca i32, align 4
  %7 = alloca ptr, align 8
  %8 = alloca ptr, align 8
  %9 = alloca i32, align 4
  %10 = alloca %"class.Imath_3_2::Vec2", align 4
  %11 = alloca %"class.Imath_3_2::Vec2", align 4
  %12 = alloca %"class.Imath_3_2::Vec2", align 4
  store ptr %0, ptr %5, align 8
  store i32 %1, ptr %6, align 4, !tbaa !31
  store ptr %2, ptr %7, align 8, !tbaa !21
  store ptr %3, ptr %8, align 8, !tbaa !16
  call void @llvm.lifetime.start.p0(i64 4, ptr %9) #3
  %13 = load ptr, ptr %7, align 8, !tbaa !21
  %14 = call noundef i32 @_ZN7Imf_3_47CubeMap10sizeOfFaceERKN9Imath_3_23BoxINS1_4Vec2IiEEEE(ptr noundef nonnull align 4 dereferenceable(16) %13)
  store i32 %14, ptr %9, align 4, !tbaa !14
  call void @llvm.lifetime.start.p0(i64 8, ptr %10) #3
  call void @_ZN9Imath_3_24Vec2IfEC2Ev(ptr noundef nonnull align 4 dereferenceable(8) %10) #3
  %15 = load i32, ptr %9, align 4, !tbaa !14
  %16 = icmp sgt i32 %15, 1
  br i1 %16, label %17, label %35

17:                                               ; preds = %4
  call void @llvm.lifetime.start.p0(i64 8, ptr %11) #3
  %18 = load ptr, ptr %8, align 8, !tbaa !16
  %19 = getelementptr inbounds nuw %"class.Imath_3_2::Vec2", ptr %18, i32 0, i32 0
  %20 = load float, ptr %19, align 4, !tbaa !18
  %21 = load i32, ptr %9, align 4, !tbaa !14
  %22 = sub nsw i32 %21, 1
  %23 = sitofp i32 %22 to float
  %24 = fdiv float %20, %23
  %25 = call float @llvm.fmuladd.f32(float %24, float 2.000000e+00, float -1.000000e+00)
  %26 = load ptr, ptr %8, align 8, !tbaa !16
  %27 = getelementptr inbounds nuw %"class.Imath_3_2::Vec2", ptr %26, i32 0, i32 1
  %28 = load float, ptr %27, align 4, !tbaa !20
  %29 = load i32, ptr %9, align 4, !tbaa !14
  %30 = sub nsw i32 %29, 1
  %31 = sitofp i32 %30 to float
  %32 = fdiv float %28, %31
  %33 = call float @llvm.fmuladd.f32(float %32, float 2.000000e+00, float -1.000000e+00)
  call void @_ZN9Imath_3_24Vec2IfEC2Eff(ptr noundef nonnull align 4 dereferenceable(8) %11, float noundef %25, float noundef %33) #3
  %34 = call noundef nonnull align 4 dereferenceable(8) ptr @_ZN9Imath_3_24Vec2IfEaSERKS1_(ptr noundef nonnull align 4 dereferenceable(8) %10, ptr noundef nonnull align 4 dereferenceable(8) %11) #3
  call void @llvm.lifetime.end.p0(i64 8, ptr %11) #3
  br label %37

35:                                               ; preds = %4
  call void @llvm.lifetime.start.p0(i64 8, ptr %12) #3
  call void @_ZN9Imath_3_24Vec2IfEC2Eff(ptr noundef nonnull align 4 dereferenceable(8) %12, float noundef 0.000000e+00, float noundef 0.000000e+00) #3
  %36 = call noundef nonnull align 4 dereferenceable(8) ptr @_ZN9Imath_3_24Vec2IfEaSERKS1_(ptr noundef nonnull align 4 dereferenceable(8) %10, ptr noundef nonnull align 4 dereferenceable(8) %12) #3
  call void @llvm.lifetime.end.p0(i64 8, ptr %12) #3
  br label %37

37:                                               ; preds = %35, %17
  call void @_ZN9Imath_3_24Vec3IfEC2Efff(ptr noundef nonnull align 4 dereferenceable(12) %0, float noundef 1.000000e+00, float noundef 0.000000e+00, float noundef 0.000000e+00) #3
  %38 = load i32, ptr %6, align 4, !tbaa !31
  switch i32 %38, label %87 [
    i32 0, label %39
    i32 1, label %47
    i32 2, label %55
    i32 3, label %63
    i32 4, label %71
    i32 5, label %79
  ]

39:                                               ; preds = %37
  %40 = getelementptr inbounds nuw %"class.Imath_3_2::Vec3", ptr %0, i32 0, i32 0
  store float 1.000000e+00, ptr %40, align 4, !tbaa !11
  %41 = getelementptr inbounds nuw %"class.Imath_3_2::Vec2", ptr %10, i32 0, i32 0
  %42 = load float, ptr %41, align 4, !tbaa !18
  %43 = getelementptr inbounds nuw %"class.Imath_3_2::Vec3", ptr %0, i32 0, i32 1
  store float %42, ptr %43, align 4, !tbaa !13
  %44 = getelementptr inbounds nuw %"class.Imath_3_2::Vec2", ptr %10, i32 0, i32 1
  %45 = load float, ptr %44, align 4, !tbaa !20
  %46 = getelementptr inbounds nuw %"class.Imath_3_2::Vec3", ptr %0, i32 0, i32 2
  store float %45, ptr %46, align 4, !tbaa !8
  br label %87

47:                                               ; preds = %37
  %48 = getelementptr inbounds nuw %"class.Imath_3_2::Vec3", ptr %0, i32 0, i32 0
  store float -1.000000e+00, ptr %48, align 4, !tbaa !11
  %49 = getelementptr inbounds nuw %"class.Imath_3_2::Vec2", ptr %10, i32 0, i32 0
  %50 = load float, ptr %49, align 4, !tbaa !18
  %51 = getelementptr inbounds nuw %"class.Imath_3_2::Vec3", ptr %0, i32 0, i32 1
  store float %50, ptr %51, align 4, !tbaa !13
  %52 = getelementptr inbounds nuw %"class.Imath_3_2::Vec2", ptr %10, i32 0, i32 1
  %53 = load float, ptr %52, align 4, !tbaa !20
  %54 = getelementptr inbounds nuw %"class.Imath_3_2::Vec3", ptr %0, i32 0, i32 2
  store float %53, ptr %54, align 4, !tbaa !8
  br label %87

55:                                               ; preds = %37
  %56 = getelementptr inbounds nuw %"class.Imath_3_2::Vec2", ptr %10, i32 0, i32 0
  %57 = load float, ptr %56, align 4, !tbaa !18
  %58 = getelementptr inbounds nuw %"class.Imath_3_2::Vec3", ptr %0, i32 0, i32 0
  store float %57, ptr %58, align 4, !tbaa !11
  %59 = getelementptr inbounds nuw %"class.Imath_3_2::Vec3", ptr %0, i32 0, i32 1
  store float 1.000000e+00, ptr %59, align 4, !tbaa !13
  %60 = getelementptr inbounds nuw %"class.Imath_3_2::Vec2", ptr %10, i32 0, i32 1
  %61 = load float, ptr %60, align 4, !tbaa !20
  %62 = getelementptr inbounds nuw %"class.Imath_3_2::Vec3", ptr %0, i32 0, i32 2
  store float %61, ptr %62, align 4, !tbaa !8
  br label %87

63:                                               ; preds = %37
  %64 = getelementptr inbounds nuw %"class.Imath_3_2::Vec2", ptr %10, i32 0, i32 0
  %65 = load float, ptr %64, align 4, !tbaa !18
  %66 = getelementptr inbounds nuw %"class.Imath_3_2::Vec3", ptr %0, i32 0, i32 0
  store float %65, ptr %66, align 4, !tbaa !11
  %67 = getelementptr inbounds nuw %"class.Imath_3_2::Vec3", ptr %0, i32 0, i32 1
  store float -1.000000e+00, ptr %67, align 4, !tbaa !13
  %68 = getelementptr inbounds nuw %"class.Imath_3_2::Vec2", ptr %10, i32 0, i32 1
  %69 = load float, ptr %68, align 4, !tbaa !20
  %70 = getelementptr inbounds nuw %"class.Imath_3_2::Vec3", ptr %0, i32 0, i32 2
  store float %69, ptr %70, align 4, !tbaa !8
  br label %87

71:                                               ; preds = %37
  %72 = getelementptr inbounds nuw %"class.Imath_3_2::Vec2", ptr %10, i32 0, i32 0
  %73 = load float, ptr %72, align 4, !tbaa !18
  %74 = getelementptr inbounds nuw %"class.Imath_3_2::Vec3", ptr %0, i32 0, i32 0
  store float %73, ptr %74, align 4, !tbaa !11
  %75 = getelementptr inbounds nuw %"class.Imath_3_2::Vec2", ptr %10, i32 0, i32 1
  %76 = load float, ptr %75, align 4, !tbaa !20
  %77 = getelementptr inbounds nuw %"class.Imath_3_2::Vec3", ptr %0, i32 0, i32 1
  store float %76, ptr %77, align 4, !tbaa !13
  %78 = getelementptr inbounds nuw %"class.Imath_3_2::Vec3", ptr %0, i32 0, i32 2
  store float 1.000000e+00, ptr %78, align 4, !tbaa !8
  br label %87

79:                                               ; preds = %37
  %80 = getelementptr inbounds nuw %"class.Imath_3_2::Vec2", ptr %10, i32 0, i32 0
  %81 = load float, ptr %80, align 4, !tbaa !18
  %82 = getelementptr inbounds nuw %"class.Imath_3_2::Vec3", ptr %0, i32 0, i32 0
  store float %81, ptr %82, align 4, !tbaa !11
  %83 = getelementptr inbounds nuw %"class.Imath_3_2::Vec2", ptr %10, i32 0, i32 1
  %84 = load float, ptr %83, align 4, !tbaa !20
  %85 = getelementptr inbounds nuw %"class.Imath_3_2::Vec3", ptr %0, i32 0, i32 1
  store float %84, ptr %85, align 4, !tbaa !13
  %86 = getelementptr inbounds nuw %"class.Imath_3_2::Vec3", ptr %0, i32 0, i32 2
  store float -1.000000e+00, ptr %86, align 4, !tbaa !8
  br label %87

87:                                               ; preds = %37, %79, %71, %63, %55, %47, %39
  call void @llvm.lifetime.end.p0(i64 8, ptr %10) #3
  call void @llvm.lifetime.end.p0(i64 4, ptr %9) #3
  ret void
}