; Function Attrs: mustprogress nofree norecurse nosync nounwind willreturn memory(argmem: readwrite) uwtable
define void @_ZN7Imf_3_47CubeMap9directionENS_11CubeMapFaceERKN9Imath_3_23BoxINS2_4Vec2IiEEEERKNS4_IfEE(ptr dead_on_unwind noalias writable writeonly sret(%"class.Imath_3_2::Vec3") align 4 captures(none) initializes((0, 12)) %0, i32 noundef %1, ptr noundef nonnull readonly align 4 captures(none) dereferenceable(16) %2, ptr noundef nonnull readonly align 4 captures(none) dereferenceable(8) %3) local_unnamed_addr #5 {
  %5 = getelementptr inbounds nuw i8, ptr %2, i64 8
  %6 = load i32, ptr %5, align 4, !tbaa !20
  %7 = load i32, ptr %2, align 4, !tbaa !21
  %8 = add i32 %6, 1
  %9 = sub i32 %8, %7
  %10 = getelementptr inbounds nuw i8, ptr %2, i64 12
  %11 = load i32, ptr %10, align 4, !tbaa !16
  %12 = getelementptr inbounds nuw i8, ptr %2, i64 4
  %13 = load i32, ptr %12, align 4, !tbaa !19
  %14 = add i32 %11, 1
  %15 = sub i32 %14, %13
  %16 = sdiv i32 %15, 6
  %.sroa.speculated.i = tail call noundef range(i32 -2147483647, 357913942) i32 @llvm.smin.i32(i32 %16, i32 %9)
  %17 = icmp sgt i32 %.sroa.speculated.i, 1
  br i1 %17, label %18, label %28

18:                                               ; preds = %4
  %19 = load float, ptr %3, align 4, !tbaa !13
  %20 = add nsw i32 %.sroa.speculated.i, -1
  %21 = uitofp nneg i32 %20 to float
  %22 = fdiv float %19, %21
  %23 = tail call float @llvm.fmuladd.f32(float %22, float 2.000000e+00, float -1.000000e+00)
  %24 = getelementptr inbounds nuw i8, ptr %3, i64 4
  %25 = load float, ptr %24, align 4, !tbaa !15
  %26 = fdiv float %25, %21
  %27 = tail call float @llvm.fmuladd.f32(float %26, float 2.000000e+00, float -1.000000e+00)
  br label %28

28:                                               ; preds = %4, %18
  %.sroa.08.0 = phi float [ %23, %18 ], [ 0.000000e+00, %4 ]
  %.sroa.10.0 = phi float [ %27, %18 ], [ 0.000000e+00, %4 ]
  store float 1.000000e+00, ptr %0, align 4, !tbaa !8
  %29 = getelementptr inbounds nuw i8, ptr %0, i64 4
  store float 0.000000e+00, ptr %29, align 4, !tbaa !9
  %30 = getelementptr inbounds nuw i8, ptr %0, i64 8
  store float 0.000000e+00, ptr %30, align 4, !tbaa !3
  switch i32 %1, label %35 [
    i32 0, label %.sink.split
    i32 1, label %.sink.split.sink.split
    i32 2, label %31
    i32 3, label %32
    i32 4, label %33
    i32 5, label %34
  ]

31:                                               ; preds = %28
  br label %.sink.split.sink.split

32:                                               ; preds = %28
  br label %.sink.split.sink.split

33:                                               ; preds = %28
  br label %.sink.split.sink.split

34:                                               ; preds = %28
  br label %.sink.split.sink.split

.sink.split.sink.split:                           ; preds = %28, %34, %33, %32, %31
  %.sink20 = phi float [ %.sroa.08.0, %31 ], [ %.sroa.08.0, %32 ], [ %.sroa.08.0, %33 ], [ %.sroa.08.0, %34 ], [ -1.000000e+00, %28 ]
  %.sroa.10.0.sink.ph = phi float [ 1.000000e+00, %31 ], [ -1.000000e+00, %32 ], [ %.sroa.10.0, %33 ], [ %.sroa.10.0, %34 ], [ %.sroa.08.0, %28 ]
  %.sink.ph = phi float [ %.sroa.10.0, %31 ], [ %.sroa.10.0, %32 ], [ 1.000000e+00, %33 ], [ -1.000000e+00, %34 ], [ %.sroa.10.0, %28 ]
  store float %.sink20, ptr %0, align 4, !tbaa !8
  br label %.sink.split

.sink.split:                                      ; preds = %.sink.split.sink.split, %28
  %.sroa.10.0.sink = phi float [ %.sroa.08.0, %28 ], [ %.sroa.10.0.sink.ph, %.sink.split.sink.split ]
  %.sink = phi float [ %.sroa.10.0, %28 ], [ %.sink.ph, %.sink.split.sink.split ]
  store float %.sroa.10.0.sink, ptr %29, align 4, !tbaa !9
  store float %.sink, ptr %30, align 4, !tbaa !3
  br label %35

35:                                               ; preds = %.sink.split, %28
  ret void
}